target datalayout = "e-m:e-p270:32:32-p271:32:32-p272:64:64-i64:64-i128:128-f80:128-n8:16:32:64-S128"
target triple = "x86_64-pc-linux-gnu"

%struct.SHA256_CTX = type { [64 x i8], i32, i64, [8 x i32] }

; Function Attrs: nounwind uwtable
define dso_local void @sha256_update(ptr noundef %0, ptr noundef %1, i64 noundef %2) #0 {
  %4 = alloca ptr, align 8
  %5 = alloca ptr, align 8
  %6 = alloca i64, align 8
  %7 = alloca i32, align 4
  store ptr %0, ptr %4, align 8, !tbaa !5
  store ptr %1, ptr %5, align 8, !tbaa !9
  store i64 %2, ptr %6, align 8, !tbaa !22
  call void @llvm.lifetime.start.p0(i64 4, ptr %7) #3
  store i32 0, ptr %7, align 4, !tbaa !11
  br label %8

8:                                                ; preds = %46, %3
  %9 = load i32, ptr %7, align 4, !tbaa !11
  %10 = zext i32 %9 to i64
  %11 = load i64, ptr %6, align 8, !tbaa !22
  %12 = icmp ult i64 %10, %11
  br i1 %12, label %13, label %49

13:                                               ; preds = %8
  %14 = load ptr, ptr %5, align 8, !tbaa !9
  %15 = load i32, ptr %7, align 4, !tbaa !11
  %16 = zext i32 %15 to i64
  %17 = getelementptr inbounds nuw i8, ptr %14, i64 %16
  %18 = load i8, ptr %17, align 1, !tbaa !13
  %19 = load ptr, ptr %4, align 8, !tbaa !5
  %20 = getelementptr inbounds nuw %struct.SHA256_CTX, ptr %19, i32 0, i32 0
  %21 = load ptr, ptr %4, align 8, !tbaa !5
  %22 = getelementptr inbounds nuw %struct.SHA256_CTX, ptr %21, i32 0, i32 1
  %23 = load i32, ptr %22, align 8, !tbaa !18
  %24 = zext i32 %23 to i64
  %25 = getelementptr inbounds nuw [64 x i8], ptr %20, i64 0, i64 %24
  store i8 %18, ptr %25, align 1, !tbaa !13
  %26 = load ptr, ptr %4, align 8, !tbaa !5
  %27 = getelementptr inbounds nuw %struct.SHA256_CTX, ptr %26, i32 0, i32 1
  %28 = load i32, ptr %27, align 8, !tbaa !18
  %29 = add i32 %28, 1
  store i32 %29, ptr %27, align 8, !tbaa !18
  %30 = load ptr, ptr %4, align 8, !tbaa !5
  %31 = getelementptr inbounds nuw %struct.SHA256_CTX, ptr %30, i32 0, i32 1
  %32 = load i32, ptr %31, align 8, !tbaa !18
  %33 = icmp eq i32 %32, 64
  br i1 %33, label %34, label %45

34:                                               ; preds = %13
  %35 = load ptr, ptr %4, align 8, !tbaa !5
  %36 = load ptr, ptr %4, align 8, !tbaa !5
  %37 = getelementptr inbounds nuw %struct.SHA256_CTX, ptr %36, i32 0, i32 0
  %38 = getelementptr inbounds [64 x i8], ptr %37, i64 0, i64 0
  call void @sha256_transform(ptr noundef %35, ptr noundef %38)
  %39 = load ptr, ptr %4, align 8, !tbaa !5
  %40 = getelementptr inbounds nuw %struct.SHA256_CTX, ptr %39, i32 0, i32 2
  %41 = load i64, ptr %40, align 8, !tbaa !21
  %42 = add i64 %41, 512
  store i64 %42, ptr %40, align 8, !tbaa !21
  %43 = load ptr, ptr %4, align 8, !tbaa !5
  %44 = getelementptr inbounds nuw %struct.SHA256_CTX, ptr %43, i32 0, i32 1
  store i32 0, ptr %44, align 8, !tbaa !18
  br label %45

45:                                               ; preds = %34, %13
  br label %46

46:                                               ; preds = %45
  %47 = load i32, ptr %7, align 4, !tbaa !11
  %48 = add i32 %47, 1
  store i32 %48, ptr %7, align 4, !tbaa !11
  br label %8, !llvm.loop !24

49:                                               ; preds = %8
  call void @llvm.lifetime.end.p0(i64 4, ptr %7) #3
  ret void
}