; Function Attrs: nofree norecurse nosync nounwind memory(argmem: readwrite) uwtable
define dso_local void @sha256_update(ptr noundef captures(none) %0, ptr noundef readonly captures(none) %1, i64 noundef %2) local_unnamed_addr #0 {
  %.not = icmp eq i64 %2, 0
  br i1 %.not, label %._crit_edge, label %.lr.ph

.lr.ph:                                           ; preds = %3
  %4 = getelementptr inbounds nuw i8, ptr %0, i64 64
  %5 = getelementptr inbounds nuw i8, ptr %0, i64 72
  %.pre = load i32, ptr %4, align 8, !tbaa !14
  br label %6

6:                                                ; preds = %.lr.ph, %19
  %7 = phi i32 [ %.pre, %.lr.ph ], [ %20, %19 ]
  %8 = phi i64 [ 0, %.lr.ph ], [ %22, %19 ]
  %.013 = phi i32 [ 0, %.lr.ph ], [ %21, %19 ]
  %9 = getelementptr inbounds nuw i8, ptr %1, i64 %8
  %10 = load i8, ptr %9, align 1, !tbaa !9
  %11 = zext i32 %7 to i64
  %12 = getelementptr inbounds nuw [64 x i8], ptr %0, i64 0, i64 %11
  store i8 %10, ptr %12, align 1, !tbaa !9
  %13 = load i32, ptr %4, align 8, !tbaa !14
  %14 = add i32 %13, 1
  store i32 %14, ptr %4, align 8, !tbaa !14
  %15 = icmp eq i32 %14, 64
  br i1 %15, label %16, label %19

16:                                               ; preds = %6
  tail call void @sha256_transform(ptr noundef nonnull %0, ptr noundef nonnull %0)
  %17 = load i64, ptr %5, align 8, !tbaa !17
  %18 = add i64 %17, 512
  store i64 %18, ptr %5, align 8, !tbaa !17
  store i32 0, ptr %4, align 8, !tbaa !14
  br label %19

19:                                               ; preds = %6, %16
  %20 = phi i32 [ %14, %6 ], [ 0, %16 ]
  %21 = add i32 %.013, 1
  %22 = zext i32 %21 to i64
  %23 = icmp ugt i64 %2, %22
  br i1 %23, label %6, label %._crit_edge, !llvm.loop !18

._crit_edge:                                      ; preds = %19, %3
  ret void
}